Archive member included to satisfy reference by file (symbol)

c:/avr-gcc-7.2.0-x86-mingw/bin/../lib/gcc/avr/7.2.0/avr5\libgcc.a(_divmodhi4.o)
                              lcd.o (__divmodhi4)
c:/avr-gcc-7.2.0-x86-mingw/bin/../lib/gcc/avr/7.2.0/avr5\libgcc.a(_exit.o)
                              c:/avr-gcc-7.2.0-x86-mingw/bin/../lib/gcc/avr/7.2.0/../../../../avr/lib/avr5/crtatmega32.o (exit)
c:/avr-gcc-7.2.0-x86-mingw/bin/../lib/gcc/avr/7.2.0/avr5\libgcc.a(_tablejump2.o)
                              keypad.o (__tablejump2__)
c:/avr-gcc-7.2.0-x86-mingw/bin/../lib/gcc/avr/7.2.0/avr5\libgcc.a(_copy_data.o)
                              keypad.o (__do_copy_data)
c:/avr-gcc-7.2.0-x86-mingw/bin/../lib/gcc/avr/7.2.0/avr5\libgcc.a(_clear_bss.o)
                              lcd_test.o (__do_clear_bss)
c:/avr-gcc-7.2.0-x86-mingw/bin/../lib/gcc/avr/7.2.0/avr5\libgcc.a(_udivmodhi4.o)
                              c:/avr-gcc-7.2.0-x86-mingw/bin/../lib/gcc/avr/7.2.0/avr5\libgcc.a(_divmodhi4.o) (__udivmodhi4)
c:/avr-gcc-7.2.0-x86-mingw/bin/../lib/gcc/avr/7.2.0/../../../../avr/lib/avr5\libm.a(addsf3.o)
                              lcd.o (__subsf3)
c:/avr-gcc-7.2.0-x86-mingw/bin/../lib/gcc/avr/7.2.0/../../../../avr/lib/avr5\libm.a(addsf3x.o)
                              c:/avr-gcc-7.2.0-x86-mingw/bin/../lib/gcc/avr/7.2.0/../../../../avr/lib/avr5\libm.a(addsf3.o) (__addsf3x)
c:/avr-gcc-7.2.0-x86-mingw/bin/../lib/gcc/avr/7.2.0/../../../../avr/lib/avr5\libm.a(cmpsf2.o)
                              lcd_test.o (__ltsf2)
c:/avr-gcc-7.2.0-x86-mingw/bin/../lib/gcc/avr/7.2.0/../../../../avr/lib/avr5\libm.a(cos.o)
                              lcd_test.o (cos)
c:/avr-gcc-7.2.0-x86-mingw/bin/../lib/gcc/avr/7.2.0/../../../../avr/lib/avr5\libm.a(divsf3.o)
                              lcd_test.o (__divsf3)
c:/avr-gcc-7.2.0-x86-mingw/bin/../lib/gcc/avr/7.2.0/../../../../avr/lib/avr5\libm.a(divsf3x.o)
                              c:/avr-gcc-7.2.0-x86-mingw/bin/../lib/gcc/avr/7.2.0/../../../../avr/lib/avr5\libm.a(divsf3.o) (__divsf3x)
c:/avr-gcc-7.2.0-x86-mingw/bin/../lib/gcc/avr/7.2.0/../../../../avr/lib/avr5\libm.a(fixsfsi.o)
                              lcd.o (__fixsfsi)
c:/avr-gcc-7.2.0-x86-mingw/bin/../lib/gcc/avr/7.2.0/../../../../avr/lib/avr5\libm.a(fixunssfsi.o)
                              c:/avr-gcc-7.2.0-x86-mingw/bin/../lib/gcc/avr/7.2.0/../../../../avr/lib/avr5\libm.a(fixsfsi.o) (__fixunssfsi)
c:/avr-gcc-7.2.0-x86-mingw/bin/../lib/gcc/avr/7.2.0/../../../../avr/lib/avr5\libm.a(floatsisf.o)
                              lcd.o (__floatsisf)
c:/avr-gcc-7.2.0-x86-mingw/bin/../lib/gcc/avr/7.2.0/../../../../avr/lib/avr5\libm.a(fp_cmp.o)
                              c:/avr-gcc-7.2.0-x86-mingw/bin/../lib/gcc/avr/7.2.0/../../../../avr/lib/avr5\libm.a(cmpsf2.o) (__fp_cmp)
c:/avr-gcc-7.2.0-x86-mingw/bin/../lib/gcc/avr/7.2.0/../../../../avr/lib/avr5\libm.a(fp_inf.o)
                              c:/avr-gcc-7.2.0-x86-mingw/bin/../lib/gcc/avr/7.2.0/../../../../avr/lib/avr5\libm.a(addsf3x.o) (__fp_inf)
c:/avr-gcc-7.2.0-x86-mingw/bin/../lib/gcc/avr/7.2.0/../../../../avr/lib/avr5\libm.a(fp_nan.o)
                              c:/avr-gcc-7.2.0-x86-mingw/bin/../lib/gcc/avr/7.2.0/../../../../avr/lib/avr5\libm.a(addsf3x.o) (__fp_nan)
c:/avr-gcc-7.2.0-x86-mingw/bin/../lib/gcc/avr/7.2.0/../../../../avr/lib/avr5\libm.a(fp_pscA.o)
                              c:/avr-gcc-7.2.0-x86-mingw/bin/../lib/gcc/avr/7.2.0/../../../../avr/lib/avr5\libm.a(addsf3x.o) (__fp_pscA)
c:/avr-gcc-7.2.0-x86-mingw/bin/../lib/gcc/avr/7.2.0/../../../../avr/lib/avr5\libm.a(fp_pscB.o)
                              c:/avr-gcc-7.2.0-x86-mingw/bin/../lib/gcc/avr/7.2.0/../../../../avr/lib/avr5\libm.a(addsf3x.o) (__fp_pscB)
c:/avr-gcc-7.2.0-x86-mingw/bin/../lib/gcc/avr/7.2.0/../../../../avr/lib/avr5\libm.a(fp_rempio2.o)
                              c:/avr-gcc-7.2.0-x86-mingw/bin/../lib/gcc/avr/7.2.0/../../../../avr/lib/avr5\libm.a(cos.o) (__fp_rempio2)
c:/avr-gcc-7.2.0-x86-mingw/bin/../lib/gcc/avr/7.2.0/../../../../avr/lib/avr5\libm.a(fp_round.o)
                              c:/avr-gcc-7.2.0-x86-mingw/bin/../lib/gcc/avr/7.2.0/../../../../avr/lib/avr5\libm.a(addsf3.o) (__fp_round)
c:/avr-gcc-7.2.0-x86-mingw/bin/../lib/gcc/avr/7.2.0/../../../../avr/lib/avr5\libm.a(fp_sinus.o)
                              c:/avr-gcc-7.2.0-x86-mingw/bin/../lib/gcc/avr/7.2.0/../../../../avr/lib/avr5\libm.a(cos.o) (__fp_sinus)
c:/avr-gcc-7.2.0-x86-mingw/bin/../lib/gcc/avr/7.2.0/../../../../avr/lib/avr5\libm.a(fp_split3.o)
                              c:/avr-gcc-7.2.0-x86-mingw/bin/../lib/gcc/avr/7.2.0/../../../../avr/lib/avr5\libm.a(addsf3x.o) (__fp_split3)
c:/avr-gcc-7.2.0-x86-mingw/bin/../lib/gcc/avr/7.2.0/../../../../avr/lib/avr5\libm.a(fp_zero.o)
                              c:/avr-gcc-7.2.0-x86-mingw/bin/../lib/gcc/avr/7.2.0/../../../../avr/lib/avr5\libm.a(addsf3x.o) (__fp_zero)
c:/avr-gcc-7.2.0-x86-mingw/bin/../lib/gcc/avr/7.2.0/../../../../avr/lib/avr5\libm.a(gesf2.o)
                              lcd_test.o (__gtsf2)
c:/avr-gcc-7.2.0-x86-mingw/bin/../lib/gcc/avr/7.2.0/../../../../avr/lib/avr5\libm.a(mulsf3.o)
                              lcd.o (__mulsf3)
c:/avr-gcc-7.2.0-x86-mingw/bin/../lib/gcc/avr/7.2.0/../../../../avr/lib/avr5\libm.a(mulsf3x.o)
                              c:/avr-gcc-7.2.0-x86-mingw/bin/../lib/gcc/avr/7.2.0/../../../../avr/lib/avr5\libm.a(mulsf3.o) (__mulsf3x)
c:/avr-gcc-7.2.0-x86-mingw/bin/../lib/gcc/avr/7.2.0/../../../../avr/lib/avr5\libm.a(fp_mpack.o)
                              c:/avr-gcc-7.2.0-x86-mingw/bin/../lib/gcc/avr/7.2.0/../../../../avr/lib/avr5\libm.a(fp_rempio2.o) (__fp_mpack_finite)
c:/avr-gcc-7.2.0-x86-mingw/bin/../lib/gcc/avr/7.2.0/../../../../avr/lib/avr5\libm.a(fp_powsodd.o)
                              c:/avr-gcc-7.2.0-x86-mingw/bin/../lib/gcc/avr/7.2.0/../../../../avr/lib/avr5\libm.a(fp_sinus.o) (__fp_powsodd)
c:/avr-gcc-7.2.0-x86-mingw/bin/../lib/gcc/avr/7.2.0/../../../../avr/lib/avr5\libm.a(fp_powser.o)
                              c:/avr-gcc-7.2.0-x86-mingw/bin/../lib/gcc/avr/7.2.0/../../../../avr/lib/avr5\libm.a(fp_powsodd.o) (__fp_powser)

Allocating common symbols
Common symbol       size              file

i_timer             0x2               lcd_test.o
v_frequency         0x4               lcd_test.o

Memory Configuration

Name             Origin             Length             Attributes
text             0x00000000         0x00020000         xr
data             0x00800060         0x0000ffa0         rw !x
eeprom           0x00810000         0x00010000         rw !x
fuse             0x00820000         0x00000400         rw !x
lock             0x00830000         0x00000400         rw !x
signature        0x00840000         0x00000400         rw !x
user_signatures  0x00850000         0x00000400         rw !x
*default*        0x00000000         0xffffffff

Linker script and memory map

LOAD c:/avr-gcc-7.2.0-x86-mingw/bin/../lib/gcc/avr/7.2.0/../../../../avr/lib/avr5/crtatmega32.o
LOAD keypad.o
LOAD lcd.o
LOAD lcd_test.o
LOAD uart.o
START GROUP
LOAD c:/avr-gcc-7.2.0-x86-mingw/bin/../lib/gcc/avr/7.2.0/avr5\libgcc.a
LOAD c:/avr-gcc-7.2.0-x86-mingw/bin/../lib/gcc/avr/7.2.0/../../../../avr/lib/avr5\libm.a
LOAD c:/avr-gcc-7.2.0-x86-mingw/bin/../lib/gcc/avr/7.2.0/../../../../avr/lib/avr5\libc.a
LOAD c:/avr-gcc-7.2.0-x86-mingw/bin/../lib/gcc/avr/7.2.0/../../../../avr/lib/avr5\libatmega32.a
END GROUP
                0x00020000                __TEXT_REGION_LENGTH__ = DEFINED (__TEXT_REGION_LENGTH__)?__TEXT_REGION_LENGTH__:0x20000
                0x0000ffa0                __DATA_REGION_LENGTH__ = DEFINED (__DATA_REGION_LENGTH__)?__DATA_REGION_LENGTH__:0xffa0
                0x00010000                __EEPROM_REGION_LENGTH__ = DEFINED (__EEPROM_REGION_LENGTH__)?__EEPROM_REGION_LENGTH__:0x10000
                0x00000400                __FUSE_REGION_LENGTH__ = DEFINED (__FUSE_REGION_LENGTH__)?__FUSE_REGION_LENGTH__:0x400
                0x00000400                __LOCK_REGION_LENGTH__ = DEFINED (__LOCK_REGION_LENGTH__)?__LOCK_REGION_LENGTH__:0x400
                0x00000400                __SIGNATURE_REGION_LENGTH__ = DEFINED (__SIGNATURE_REGION_LENGTH__)?__SIGNATURE_REGION_LENGTH__:0x400
                0x00000400                __USER_SIGNATURE_REGION_LENGTH__ = DEFINED (__USER_SIGNATURE_REGION_LENGTH__)?__USER_SIGNATURE_REGION_LENGTH__:0x400

.hash
 *(.hash)

.dynsym
 *(.dynsym)

.dynstr
 *(.dynstr)

.gnu.version
 *(.gnu.version)

.gnu.version_d
 *(.gnu.version_d)

.gnu.version_r
 *(.gnu.version_r)

.rel.init
 *(.rel.init)

.rela.init
 *(.rela.init)

.rel.text
 *(.rel.text)
 *(.rel.text.*)
 *(.rel.gnu.linkonce.t*)

.rela.text
 *(.rela.text)
 *(.rela.text.*)
 *(.rela.gnu.linkonce.t*)

.rel.fini
 *(.rel.fini)

.rela.fini
 *(.rela.fini)

.rel.rodata
 *(.rel.rodata)
 *(.rel.rodata.*)
 *(.rel.gnu.linkonce.r*)

.rela.rodata
 *(.rela.rodata)
 *(.rela.rodata.*)
 *(.rela.gnu.linkonce.r*)

.rel.data
 *(.rel.data)
 *(.rel.data.*)
 *(.rel.gnu.linkonce.d*)

.rela.data
 *(.rela.data)
 *(.rela.data.*)
 *(.rela.gnu.linkonce.d*)

.rel.ctors
 *(.rel.ctors)

.rela.ctors
 *(.rela.ctors)

.rel.dtors
 *(.rel.dtors)

.rela.dtors
 *(.rela.dtors)

.rel.got
 *(.rel.got)

.rela.got
 *(.rela.got)

.rel.bss
 *(.rel.bss)

.rela.bss
 *(.rela.bss)

.rel.plt
 *(.rel.plt)

.rela.plt
 *(.rela.plt)

.text           0x00000000     0x1cf4
 *(.vectors)
 .vectors       0x00000000       0x54 c:/avr-gcc-7.2.0-x86-mingw/bin/../lib/gcc/avr/7.2.0/../../../../avr/lib/avr5/crtatmega32.o
                0x00000000                __vector_default
                0x00000000                __vectors
 *(.vectors)
 *(.progmem.gcc*)
 .progmem.gcc_fplib
                0x00000054       0x1e c:/avr-gcc-7.2.0-x86-mingw/bin/../lib/gcc/avr/7.2.0/../../../../avr/lib/avr5\libm.a(fp_sinus.o)
                0x00000072                . = ALIGN (0x2)
                0x00000072                __trampolines_start = .
 *(.trampolines)
 .trampolines   0x00000072        0x0 linker stubs
 *(.trampolines*)
                0x00000072                __trampolines_end = .
 *libprintf_flt.a:*(.progmem.data)
 *libc.a:*(.progmem.data)
 *(.progmem*)
 .progmem.data  0x00000072       0xb2 lcd_test.o
                0x00000124                . = ALIGN (0x2)
 *(.lowtext)
 *(.lowtext*)
                0x00000124                __ctors_start = .
 *(.ctors)
                0x00000124                __ctors_end = .
                0x00000124                __dtors_start = .
 *(.dtors)
                0x00000124                __dtors_end = .
 SORT(*)(.ctors)
 SORT(*)(.dtors)
 *(.init0)
 .init0         0x00000124        0x0 c:/avr-gcc-7.2.0-x86-mingw/bin/../lib/gcc/avr/7.2.0/../../../../avr/lib/avr5/crtatmega32.o
                0x00000124                __init
 *(.init0)
 *(.init1)
 *(.init1)
 *(.init2)
 .init2         0x00000124        0xc c:/avr-gcc-7.2.0-x86-mingw/bin/../lib/gcc/avr/7.2.0/../../../../avr/lib/avr5/crtatmega32.o
 *(.init2)
 *(.init3)
 *(.init3)
 *(.init4)
 .init4         0x00000130       0x16 c:/avr-gcc-7.2.0-x86-mingw/bin/../lib/gcc/avr/7.2.0/avr5\libgcc.a(_copy_data.o)
                0x00000130                __do_copy_data
 .init4         0x00000146       0x10 c:/avr-gcc-7.2.0-x86-mingw/bin/../lib/gcc/avr/7.2.0/avr5\libgcc.a(_clear_bss.o)
                0x00000146                __do_clear_bss
 *(.init4)
 *(.init5)
 *(.init5)
 *(.init6)
 *(.init6)
 *(.init7)
 *(.init7)
 *(.init8)
 *(.init8)
 *(.init9)
 .init9         0x00000156        0x8 c:/avr-gcc-7.2.0-x86-mingw/bin/../lib/gcc/avr/7.2.0/../../../../avr/lib/avr5/crtatmega32.o
 *(.init9)
 *(.text)
 .text          0x0000015e        0x4 c:/avr-gcc-7.2.0-x86-mingw/bin/../lib/gcc/avr/7.2.0/../../../../avr/lib/avr5/crtatmega32.o
                0x0000015e                __vector_12
                0x0000015e                __bad_interrupt
                0x0000015e                __vector_6
                0x0000015e                __vector_3
                0x0000015e                __vector_17
                0x0000015e                __vector_19
                0x0000015e                __vector_7
                0x0000015e                __vector_5
                0x0000015e                __vector_4
                0x0000015e                __vector_9
                0x0000015e                __vector_15
                0x0000015e                __vector_8
                0x0000015e                __vector_10
                0x0000015e                __vector_18
                0x0000015e                __vector_20
 .text          0x00000162      0x24e keypad.o
                0x00000162                keypad_init
                0x0000016a                keypad_scan
                0x00000238                keypad_key_pressed
                0x000002ee                keypad_wait_till_key_pressed
                0x00000300                keypad_loop
                0x0000039c                keypad_convert_to_char
 .text          0x000003b0      0x28a lcd.o
                0x00000482                lcd_command
                0x00000494                lcd_data
                0x000004a6                lcd_gotoxy
                0x000004b4                lcd_getxy
                0x000004bc                lcd_clrscr
                0x000004c2                lcd_home
                0x000004c8                lcd_putc
                0x000004f0                lcd_puts
                0x00000508                lcd_puts_p
                0x00000524                lcd_init
                0x0000059a                digit
 .text          0x0000063a      0x98a lcd_test.o
                0x0000063a                __vector_1
                0x00000682                __vector_2
                0x000006b6                __vector_16
                0x0000070a                __vector_11
 .text          0x00000fc4      0x15e uart.o
                0x00000fc4                __vector_13
                0x0000101c                __vector_14
                0x00001066                uart_init
                0x0000108e                uart_getc
                0x000010cc                uart_putc
                0x000010ee                uart_puts
                0x00001106                uart_puts_p
 .text          0x00001122        0x0 c:/avr-gcc-7.2.0-x86-mingw/bin/../lib/gcc/avr/7.2.0/avr5\libgcc.a(_divmodhi4.o)
 .text          0x00001122        0x0 c:/avr-gcc-7.2.0-x86-mingw/bin/../lib/gcc/avr/7.2.0/avr5\libgcc.a(_exit.o)
 .text          0x00001122        0x0 c:/avr-gcc-7.2.0-x86-mingw/bin/../lib/gcc/avr/7.2.0/avr5\libgcc.a(_tablejump2.o)
 .text          0x00001122        0x0 c:/avr-gcc-7.2.0-x86-mingw/bin/../lib/gcc/avr/7.2.0/avr5\libgcc.a(_copy_data.o)
 .text          0x00001122        0x0 c:/avr-gcc-7.2.0-x86-mingw/bin/../lib/gcc/avr/7.2.0/avr5\libgcc.a(_clear_bss.o)
 .text          0x00001122        0x0 c:/avr-gcc-7.2.0-x86-mingw/bin/../lib/gcc/avr/7.2.0/avr5\libgcc.a(_udivmodhi4.o)
 .text          0x00001122        0x0 c:/avr-gcc-7.2.0-x86-mingw/bin/../lib/gcc/avr/7.2.0/../../../../avr/lib/avr5\libm.a(addsf3.o)
 .text          0x00001122        0x0 c:/avr-gcc-7.2.0-x86-mingw/bin/../lib/gcc/avr/7.2.0/../../../../avr/lib/avr5\libm.a(addsf3x.o)
 .text          0x00001122        0x0 c:/avr-gcc-7.2.0-x86-mingw/bin/../lib/gcc/avr/7.2.0/../../../../avr/lib/avr5\libm.a(cmpsf2.o)
 .text          0x00001122        0x0 c:/avr-gcc-7.2.0-x86-mingw/bin/../lib/gcc/avr/7.2.0/../../../../avr/lib/avr5\libm.a(cos.o)
 .text          0x00001122        0x0 c:/avr-gcc-7.2.0-x86-mingw/bin/../lib/gcc/avr/7.2.0/../../../../avr/lib/avr5\libm.a(divsf3.o)
 .text          0x00001122        0x0 c:/avr-gcc-7.2.0-x86-mingw/bin/../lib/gcc/avr/7.2.0/../../../../avr/lib/avr5\libm.a(divsf3x.o)
 .text          0x00001122        0x0 c:/avr-gcc-7.2.0-x86-mingw/bin/../lib/gcc/avr/7.2.0/../../../../avr/lib/avr5\libm.a(fixsfsi.o)
 .text          0x00001122        0x0 c:/avr-gcc-7.2.0-x86-mingw/bin/../lib/gcc/avr/7.2.0/../../../../avr/lib/avr5\libm.a(fixunssfsi.o)
 .text          0x00001122        0x0 c:/avr-gcc-7.2.0-x86-mingw/bin/../lib/gcc/avr/7.2.0/../../../../avr/lib/avr5\libm.a(floatsisf.o)
 .text          0x00001122        0x0 c:/avr-gcc-7.2.0-x86-mingw/bin/../lib/gcc/avr/7.2.0/../../../../avr/lib/avr5\libm.a(fp_cmp.o)
 .text          0x00001122        0x0 c:/avr-gcc-7.2.0-x86-mingw/bin/../lib/gcc/avr/7.2.0/../../../../avr/lib/avr5\libm.a(fp_inf.o)
 .text          0x00001122        0x0 c:/avr-gcc-7.2.0-x86-mingw/bin/../lib/gcc/avr/7.2.0/../../../../avr/lib/avr5\libm.a(fp_nan.o)
 .text          0x00001122        0x0 c:/avr-gcc-7.2.0-x86-mingw/bin/../lib/gcc/avr/7.2.0/../../../../avr/lib/avr5\libm.a(fp_pscA.o)
 .text          0x00001122        0x0 c:/avr-gcc-7.2.0-x86-mingw/bin/../lib/gcc/avr/7.2.0/../../../../avr/lib/avr5\libm.a(fp_pscB.o)
 .text          0x00001122        0x0 c:/avr-gcc-7.2.0-x86-mingw/bin/../lib/gcc/avr/7.2.0/../../../../avr/lib/avr5\libm.a(fp_rempio2.o)
 .text          0x00001122        0x0 c:/avr-gcc-7.2.0-x86-mingw/bin/../lib/gcc/avr/7.2.0/../../../../avr/lib/avr5\libm.a(fp_round.o)
 .text          0x00001122        0x0 c:/avr-gcc-7.2.0-x86-mingw/bin/../lib/gcc/avr/7.2.0/../../../../avr/lib/avr5\libm.a(fp_sinus.o)
 .text          0x00001122        0x0 c:/avr-gcc-7.2.0-x86-mingw/bin/../lib/gcc/avr/7.2.0/../../../../avr/lib/avr5\libm.a(fp_split3.o)
 .text          0x00001122        0x0 c:/avr-gcc-7.2.0-x86-mingw/bin/../lib/gcc/avr/7.2.0/../../../../avr/lib/avr5\libm.a(fp_zero.o)
 .text          0x00001122        0x0 c:/avr-gcc-7.2.0-x86-mingw/bin/../lib/gcc/avr/7.2.0/../../../../avr/lib/avr5\libm.a(gesf2.o)
 .text          0x00001122        0x0 c:/avr-gcc-7.2.0-x86-mingw/bin/../lib/gcc/avr/7.2.0/../../../../avr/lib/avr5\libm.a(mulsf3.o)
 .text          0x00001122        0x0 c:/avr-gcc-7.2.0-x86-mingw/bin/../lib/gcc/avr/7.2.0/../../../../avr/lib/avr5\libm.a(mulsf3x.o)
 .text          0x00001122        0x0 c:/avr-gcc-7.2.0-x86-mingw/bin/../lib/gcc/avr/7.2.0/../../../../avr/lib/avr5\libm.a(fp_mpack.o)
 .text          0x00001122        0x0 c:/avr-gcc-7.2.0-x86-mingw/bin/../lib/gcc/avr/7.2.0/../../../../avr/lib/avr5\libm.a(fp_powsodd.o)
 .text          0x00001122        0x0 c:/avr-gcc-7.2.0-x86-mingw/bin/../lib/gcc/avr/7.2.0/../../../../avr/lib/avr5\libm.a(fp_powser.o)
                0x00001122                . = ALIGN (0x2)
 *(.text.*)
 .text.startup  0x00001122      0x5dc lcd_test.o
                0x00001122                main
 .text.libgcc.mul
                0x000016fe        0x0 c:/avr-gcc-7.2.0-x86-mingw/bin/../lib/gcc/avr/7.2.0/avr5\libgcc.a(_divmodhi4.o)
 .text.libgcc.div
                0x000016fe       0x28 c:/avr-gcc-7.2.0-x86-mingw/bin/../lib/gcc/avr/7.2.0/avr5\libgcc.a(_divmodhi4.o)
                0x000016fe                _div
                0x000016fe                __divmodhi4
 .text.libgcc   0x00001726        0x0 c:/avr-gcc-7.2.0-x86-mingw/bin/../lib/gcc/avr/7.2.0/avr5\libgcc.a(_divmodhi4.o)
 .text.libgcc.prologue
                0x00001726        0x0 c:/avr-gcc-7.2.0-x86-mingw/bin/../lib/gcc/avr/7.2.0/avr5\libgcc.a(_divmodhi4.o)
 .text.libgcc.builtins
                0x00001726        0x0 c:/avr-gcc-7.2.0-x86-mingw/bin/../lib/gcc/avr/7.2.0/avr5\libgcc.a(_divmodhi4.o)
 .text.libgcc.fmul
                0x00001726        0x0 c:/avr-gcc-7.2.0-x86-mingw/bin/../lib/gcc/avr/7.2.0/avr5\libgcc.a(_divmodhi4.o)
 .text.libgcc.fixed
                0x00001726        0x0 c:/avr-gcc-7.2.0-x86-mingw/bin/../lib/gcc/avr/7.2.0/avr5\libgcc.a(_divmodhi4.o)
 .text.libgcc.mul
                0x00001726        0x0 c:/avr-gcc-7.2.0-x86-mingw/bin/../lib/gcc/avr/7.2.0/avr5\libgcc.a(_exit.o)
 .text.libgcc.div
                0x00001726        0x0 c:/avr-gcc-7.2.0-x86-mingw/bin/../lib/gcc/avr/7.2.0/avr5\libgcc.a(_exit.o)
 .text.libgcc   0x00001726        0x0 c:/avr-gcc-7.2.0-x86-mingw/bin/../lib/gcc/avr/7.2.0/avr5\libgcc.a(_exit.o)
 .text.libgcc.prologue
                0x00001726        0x0 c:/avr-gcc-7.2.0-x86-mingw/bin/../lib/gcc/avr/7.2.0/avr5\libgcc.a(_exit.o)
 .text.libgcc.builtins
                0x00001726        0x0 c:/avr-gcc-7.2.0-x86-mingw/bin/../lib/gcc/avr/7.2.0/avr5\libgcc.a(_exit.o)
 .text.libgcc.fmul
                0x00001726        0x0 c:/avr-gcc-7.2.0-x86-mingw/bin/../lib/gcc/avr/7.2.0/avr5\libgcc.a(_exit.o)
 .text.libgcc.fixed
                0x00001726        0x0 c:/avr-gcc-7.2.0-x86-mingw/bin/../lib/gcc/avr/7.2.0/avr5\libgcc.a(_exit.o)
 .text.libgcc.mul
                0x00001726        0x0 c:/avr-gcc-7.2.0-x86-mingw/bin/../lib/gcc/avr/7.2.0/avr5\libgcc.a(_tablejump2.o)
 .text.libgcc.div
                0x00001726        0x0 c:/avr-gcc-7.2.0-x86-mingw/bin/../lib/gcc/avr/7.2.0/avr5\libgcc.a(_tablejump2.o)
 .text.libgcc   0x00001726        0xc c:/avr-gcc-7.2.0-x86-mingw/bin/../lib/gcc/avr/7.2.0/avr5\libgcc.a(_tablejump2.o)
                0x00001726                __tablejump2__
 .text.libgcc.prologue
                0x00001732        0x0 c:/avr-gcc-7.2.0-x86-mingw/bin/../lib/gcc/avr/7.2.0/avr5\libgcc.a(_tablejump2.o)
 .text.libgcc.builtins
                0x00001732        0x0 c:/avr-gcc-7.2.0-x86-mingw/bin/../lib/gcc/avr/7.2.0/avr5\libgcc.a(_tablejump2.o)
 .text.libgcc.fmul
                0x00001732        0x0 c:/avr-gcc-7.2.0-x86-mingw/bin/../lib/gcc/avr/7.2.0/avr5\libgcc.a(_tablejump2.o)
 .text.libgcc.fixed
                0x00001732        0x0 c:/avr-gcc-7.2.0-x86-mingw/bin/../lib/gcc/avr/7.2.0/avr5\libgcc.a(_tablejump2.o)
 .text.libgcc.mul
                0x00001732        0x0 c:/avr-gcc-7.2.0-x86-mingw/bin/../lib/gcc/avr/7.2.0/avr5\libgcc.a(_copy_data.o)
 .text.libgcc.div
                0x00001732        0x0 c:/avr-gcc-7.2.0-x86-mingw/bin/../lib/gcc/avr/7.2.0/avr5\libgcc.a(_copy_data.o)
 .text.libgcc   0x00001732        0x0 c:/avr-gcc-7.2.0-x86-mingw/bin/../lib/gcc/avr/7.2.0/avr5\libgcc.a(_copy_data.o)
 .text.libgcc.prologue
                0x00001732        0x0 c:/avr-gcc-7.2.0-x86-mingw/bin/../lib/gcc/avr/7.2.0/avr5\libgcc.a(_copy_data.o)
 .text.libgcc.builtins
                0x00001732        0x0 c:/avr-gcc-7.2.0-x86-mingw/bin/../lib/gcc/avr/7.2.0/avr5\libgcc.a(_copy_data.o)
 .text.libgcc.fmul
                0x00001732        0x0 c:/avr-gcc-7.2.0-x86-mingw/bin/../lib/gcc/avr/7.2.0/avr5\libgcc.a(_copy_data.o)
 .text.libgcc.fixed
                0x00001732        0x0 c:/avr-gcc-7.2.0-x86-mingw/bin/../lib/gcc/avr/7.2.0/avr5\libgcc.a(_copy_data.o)
 .text.libgcc.mul
                0x00001732        0x0 c:/avr-gcc-7.2.0-x86-mingw/bin/../lib/gcc/avr/7.2.0/avr5\libgcc.a(_clear_bss.o)
 .text.libgcc.div
                0x00001732        0x0 c:/avr-gcc-7.2.0-x86-mingw/bin/../lib/gcc/avr/7.2.0/avr5\libgcc.a(_clear_bss.o)
 .text.libgcc   0x00001732        0x0 c:/avr-gcc-7.2.0-x86-mingw/bin/../lib/gcc/avr/7.2.0/avr5\libgcc.a(_clear_bss.o)
 .text.libgcc.prologue
                0x00001732        0x0 c:/avr-gcc-7.2.0-x86-mingw/bin/../lib/gcc/avr/7.2.0/avr5\libgcc.a(_clear_bss.o)
 .text.libgcc.builtins
                0x00001732        0x0 c:/avr-gcc-7.2.0-x86-mingw/bin/../lib/gcc/avr/7.2.0/avr5\libgcc.a(_clear_bss.o)
 .text.libgcc.fmul
                0x00001732        0x0 c:/avr-gcc-7.2.0-x86-mingw/bin/../lib/gcc/avr/7.2.0/avr5\libgcc.a(_clear_bss.o)
 .text.libgcc.fixed
                0x00001732        0x0 c:/avr-gcc-7.2.0-x86-mingw/bin/../lib/gcc/avr/7.2.0/avr5\libgcc.a(_clear_bss.o)
 .text.libgcc.mul
                0x00001732        0x0 c:/avr-gcc-7.2.0-x86-mingw/bin/../lib/gcc/avr/7.2.0/avr5\libgcc.a(_udivmodhi4.o)
 .text.libgcc.div
                0x00001732       0x28 c:/avr-gcc-7.2.0-x86-mingw/bin/../lib/gcc/avr/7.2.0/avr5\libgcc.a(_udivmodhi4.o)
                0x00001732                __udivmodhi4
 .text.libgcc   0x0000175a        0x0 c:/avr-gcc-7.2.0-x86-mingw/bin/../lib/gcc/avr/7.2.0/avr5\libgcc.a(_udivmodhi4.o)
 .text.libgcc.prologue
                0x0000175a        0x0 c:/avr-gcc-7.2.0-x86-mingw/bin/../lib/gcc/avr/7.2.0/avr5\libgcc.a(_udivmodhi4.o)
 .text.libgcc.builtins
                0x0000175a        0x0 c:/avr-gcc-7.2.0-x86-mingw/bin/../lib/gcc/avr/7.2.0/avr5\libgcc.a(_udivmodhi4.o)
 .text.libgcc.fmul
                0x0000175a        0x0 c:/avr-gcc-7.2.0-x86-mingw/bin/../lib/gcc/avr/7.2.0/avr5\libgcc.a(_udivmodhi4.o)
 .text.libgcc.fixed
                0x0000175a        0x0 c:/avr-gcc-7.2.0-x86-mingw/bin/../lib/gcc/avr/7.2.0/avr5\libgcc.a(_udivmodhi4.o)
 .text.avr-libc.fplib
                0x0000175a        0xe c:/avr-gcc-7.2.0-x86-mingw/bin/../lib/gcc/avr/7.2.0/../../../../avr/lib/avr5\libm.a(addsf3.o)
                0x0000175a                __subsf3
                0x0000175c                __addsf3
 .text.avr-libc.fplib
                0x00001768       0xcc c:/avr-gcc-7.2.0-x86-mingw/bin/../lib/gcc/avr/7.2.0/../../../../avr/lib/avr5\libm.a(addsf3x.o)
                0x0000178a                __addsf3x
 .text.avr-libc.fplib
                0x00001834        0xa c:/avr-gcc-7.2.0-x86-mingw/bin/../lib/gcc/avr/7.2.0/../../../../avr/lib/avr5\libm.a(cmpsf2.o)
                0x00001834                __nesf2
                0x00001834                __eqsf2
                0x00001834                __cmpsf2
                0x00001834                __ltsf2
                0x00001834                __lesf2
 .text.avr-libc.fplib
                0x0000183e        0xa c:/avr-gcc-7.2.0-x86-mingw/bin/../lib/gcc/avr/7.2.0/../../../../avr/lib/avr5\libm.a(cos.o)
                0x0000183e                cos
 .text.avr-libc.fplib
                0x00001848        0x8 c:/avr-gcc-7.2.0-x86-mingw/bin/../lib/gcc/avr/7.2.0/../../../../avr/lib/avr5\libm.a(divsf3.o)
                0x00001848                __divsf3
 .text.avr-libc.fplib
                0x00001850       0xdc c:/avr-gcc-7.2.0-x86-mingw/bin/../lib/gcc/avr/7.2.0/../../../../avr/lib/avr5\libm.a(divsf3x.o)
                0x00001870                __divsf3x
                0x00001876                __divsf3_pse
 .text.avr-libc.fplib
                0x0000192c        0xe c:/avr-gcc-7.2.0-x86-mingw/bin/../lib/gcc/avr/7.2.0/../../../../avr/lib/avr5\libm.a(fixsfsi.o)
                0x0000192c                __fixsfsi
 .text.avr-libc.fplib
                0x0000193a       0x5e c:/avr-gcc-7.2.0-x86-mingw/bin/../lib/gcc/avr/7.2.0/../../../../avr/lib/avr5\libm.a(fixunssfsi.o)
                0x0000193a                __fixunssfsi
 .text.avr-libc.fplib
                0x00001998       0x7a c:/avr-gcc-7.2.0-x86-mingw/bin/../lib/gcc/avr/7.2.0/../../../../avr/lib/avr5\libm.a(floatsisf.o)
                0x00001998                __floatunsisf
                0x0000199c                __floatsisf
 .text.avr-libc.fplib
                0x00001a12       0x48 c:/avr-gcc-7.2.0-x86-mingw/bin/../lib/gcc/avr/7.2.0/../../../../avr/lib/avr5\libm.a(fp_cmp.o)
                0x00001a12                __fp_cmp
 .text.avr-libc.fplib
                0x00001a5a        0xc c:/avr-gcc-7.2.0-x86-mingw/bin/../lib/gcc/avr/7.2.0/../../../../avr/lib/avr5\libm.a(fp_inf.o)
                0x00001a5a                __fp_inf
 .text.avr-libc.fplib
                0x00001a66        0x6 c:/avr-gcc-7.2.0-x86-mingw/bin/../lib/gcc/avr/7.2.0/../../../../avr/lib/avr5\libm.a(fp_nan.o)
                0x00001a66                __fp_nan
 .text.avr-libc.fplib
                0x00001a6c        0xe c:/avr-gcc-7.2.0-x86-mingw/bin/../lib/gcc/avr/7.2.0/../../../../avr/lib/avr5\libm.a(fp_pscA.o)
                0x00001a6c                __fp_pscA
 .text.avr-libc.fplib
                0x00001a7a        0xe c:/avr-gcc-7.2.0-x86-mingw/bin/../lib/gcc/avr/7.2.0/../../../../avr/lib/avr5\libm.a(fp_pscB.o)
                0x00001a7a                __fp_pscB
 .text.avr-libc.fplib
                0x00001a88       0x56 c:/avr-gcc-7.2.0-x86-mingw/bin/../lib/gcc/avr/7.2.0/../../../../avr/lib/avr5\libm.a(fp_rempio2.o)
                0x00001a8c                __fp_rempio2
 .text.avr-libc.fplib
                0x00001ade       0x22 c:/avr-gcc-7.2.0-x86-mingw/bin/../lib/gcc/avr/7.2.0/../../../../avr/lib/avr5\libm.a(fp_round.o)
                0x00001ade                __fp_round
 .text.avr-libc.fplib
                0x00001b00       0x28 c:/avr-gcc-7.2.0-x86-mingw/bin/../lib/gcc/avr/7.2.0/../../../../avr/lib/avr5\libm.a(fp_sinus.o)
                0x00001b00                __fp_sinus
 .text.avr-libc.fplib
                0x00001b28       0x44 c:/avr-gcc-7.2.0-x86-mingw/bin/../lib/gcc/avr/7.2.0/../../../../avr/lib/avr5\libm.a(fp_split3.o)
                0x00001b28                __fp_split3
                0x00001b38                __fp_splitA
 .text.avr-libc.fplib
                0x00001b6c        0xe c:/avr-gcc-7.2.0-x86-mingw/bin/../lib/gcc/avr/7.2.0/../../../../avr/lib/avr5\libm.a(fp_zero.o)
                0x00001b6c                __fp_zero
                0x00001b6e                __fp_szero
 .text.avr-libc.fplib
                0x00001b7a        0xa c:/avr-gcc-7.2.0-x86-mingw/bin/../lib/gcc/avr/7.2.0/../../../../avr/lib/avr5\libm.a(gesf2.o)
                0x00001b7a                __gesf2
                0x00001b7a                __gtsf2
 .text.avr-libc.fplib
                0x00001b84        0x8 c:/avr-gcc-7.2.0-x86-mingw/bin/../lib/gcc/avr/7.2.0/../../../../avr/lib/avr5\libm.a(mulsf3.o)
                0x00001b84                __mulsf3
 .text.avr-libc.fplib
                0x00001b8c       0xd2 c:/avr-gcc-7.2.0-x86-mingw/bin/../lib/gcc/avr/7.2.0/../../../../avr/lib/avr5\libm.a(mulsf3x.o)
                0x00001baa                __mulsf3x
                0x00001bb0                __mulsf3_pse
 .text.avr-libc.fplib
                0x00001c5e       0x1c c:/avr-gcc-7.2.0-x86-mingw/bin/../lib/gcc/avr/7.2.0/../../../../avr/lib/avr5\libm.a(fp_mpack.o)
                0x00001c5e                __fp_mpack
                0x00001c62                __fp_mpack_finite
 .text.avr-libc.fplib
                0x00001c7a       0x28 c:/avr-gcc-7.2.0-x86-mingw/bin/../lib/gcc/avr/7.2.0/../../../../avr/lib/avr5\libm.a(fp_powsodd.o)
                0x00001c7a                __fp_powsodd
 .text.avr-libc.fplib
                0x00001ca2       0x4e c:/avr-gcc-7.2.0-x86-mingw/bin/../lib/gcc/avr/7.2.0/../../../../avr/lib/avr5\libm.a(fp_powser.o)
                0x00001ca2                __fp_powser
                0x00001cf0                . = ALIGN (0x2)
 *(.fini9)
 .fini9         0x00001cf0        0x0 c:/avr-gcc-7.2.0-x86-mingw/bin/../lib/gcc/avr/7.2.0/avr5\libgcc.a(_exit.o)
                0x00001cf0                _exit
                0x00001cf0                exit
 *(.fini9)
 *(.fini8)
 *(.fini8)
 *(.fini7)
 *(.fini7)
 *(.fini6)
 *(.fini6)
 *(.fini5)
 *(.fini5)
 *(.fini4)
 *(.fini4)
 *(.fini3)
 *(.fini3)
 *(.fini2)
 *(.fini2)
 *(.fini1)
 *(.fini1)
 *(.fini0)
 .fini0         0x00001cf0        0x4 c:/avr-gcc-7.2.0-x86-mingw/bin/../lib/gcc/avr/7.2.0/avr5\libgcc.a(_exit.o)
 *(.fini0)
 *(.hightext)
 *(.hightext*)
                0x00001cf4                . = ALIGN (0x2)
 *(.jumptables)
 *(.jumptables*)
                0x00001cf4                _etext = .

.data           0x00800060      0x10a load address 0x00001cf4
                0x00800060                PROVIDE (__data_start, .)
 *(.data)
 .data          0x00800060        0x0 c:/avr-gcc-7.2.0-x86-mingw/bin/../lib/gcc/avr/7.2.0/../../../../avr/lib/avr5/crtatmega32.o
 .data          0x00800060        0x5 keypad.o
                0x00800060                STRUCT_KEY
 .data          0x00800065        0x0 lcd.o
 .data          0x00800065        0x6 lcd_test.o
                0x00800065                ta_flag
                0x00800067                ma_flag
                0x00800069                pf_flag
 .data          0x0080006b        0x0 uart.o
 .data          0x0080006b        0x0 c:/avr-gcc-7.2.0-x86-mingw/bin/../lib/gcc/avr/7.2.0/avr5\libgcc.a(_divmodhi4.o)
 .data          0x0080006b        0x0 c:/avr-gcc-7.2.0-x86-mingw/bin/../lib/gcc/avr/7.2.0/avr5\libgcc.a(_exit.o)
 .data          0x0080006b        0x0 c:/avr-gcc-7.2.0-x86-mingw/bin/../lib/gcc/avr/7.2.0/avr5\libgcc.a(_tablejump2.o)
 .data          0x0080006b        0x0 c:/avr-gcc-7.2.0-x86-mingw/bin/../lib/gcc/avr/7.2.0/avr5\libgcc.a(_copy_data.o)
 .data          0x0080006b        0x0 c:/avr-gcc-7.2.0-x86-mingw/bin/../lib/gcc/avr/7.2.0/avr5\libgcc.a(_clear_bss.o)
 .data          0x0080006b        0x0 c:/avr-gcc-7.2.0-x86-mingw/bin/../lib/gcc/avr/7.2.0/avr5\libgcc.a(_udivmodhi4.o)
 .data          0x0080006b        0x0 c:/avr-gcc-7.2.0-x86-mingw/bin/../lib/gcc/avr/7.2.0/../../../../avr/lib/avr5\libm.a(addsf3.o)
 .data          0x0080006b        0x0 c:/avr-gcc-7.2.0-x86-mingw/bin/../lib/gcc/avr/7.2.0/../../../../avr/lib/avr5\libm.a(addsf3x.o)
 .data          0x0080006b        0x0 c:/avr-gcc-7.2.0-x86-mingw/bin/../lib/gcc/avr/7.2.0/../../../../avr/lib/avr5\libm.a(cmpsf2.o)
 .data          0x0080006b        0x0 c:/avr-gcc-7.2.0-x86-mingw/bin/../lib/gcc/avr/7.2.0/../../../../avr/lib/avr5\libm.a(cos.o)
 .data          0x0080006b        0x0 c:/avr-gcc-7.2.0-x86-mingw/bin/../lib/gcc/avr/7.2.0/../../../../avr/lib/avr5\libm.a(divsf3.o)
 .data          0x0080006b        0x0 c:/avr-gcc-7.2.0-x86-mingw/bin/../lib/gcc/avr/7.2.0/../../../../avr/lib/avr5\libm.a(divsf3x.o)
 .data          0x0080006b        0x0 c:/avr-gcc-7.2.0-x86-mingw/bin/../lib/gcc/avr/7.2.0/../../../../avr/lib/avr5\libm.a(fixsfsi.o)
 .data          0x0080006b        0x0 c:/avr-gcc-7.2.0-x86-mingw/bin/../lib/gcc/avr/7.2.0/../../../../avr/lib/avr5\libm.a(fixunssfsi.o)
 .data          0x0080006b        0x0 c:/avr-gcc-7.2.0-x86-mingw/bin/../lib/gcc/avr/7.2.0/../../../../avr/lib/avr5\libm.a(floatsisf.o)
 .data          0x0080006b        0x0 c:/avr-gcc-7.2.0-x86-mingw/bin/../lib/gcc/avr/7.2.0/../../../../avr/lib/avr5\libm.a(fp_cmp.o)
 .data          0x0080006b        0x0 c:/avr-gcc-7.2.0-x86-mingw/bin/../lib/gcc/avr/7.2.0/../../../../avr/lib/avr5\libm.a(fp_inf.o)
 .data          0x0080006b        0x0 c:/avr-gcc-7.2.0-x86-mingw/bin/../lib/gcc/avr/7.2.0/../../../../avr/lib/avr5\libm.a(fp_nan.o)
 .data          0x0080006b        0x0 c:/avr-gcc-7.2.0-x86-mingw/bin/../lib/gcc/avr/7.2.0/../../../../avr/lib/avr5\libm.a(fp_pscA.o)
 .data          0x0080006b        0x0 c:/avr-gcc-7.2.0-x86-mingw/bin/../lib/gcc/avr/7.2.0/../../../../avr/lib/avr5\libm.a(fp_pscB.o)
 .data          0x0080006b        0x0 c:/avr-gcc-7.2.0-x86-mingw/bin/../lib/gcc/avr/7.2.0/../../../../avr/lib/avr5\libm.a(fp_rempio2.o)
 .data          0x0080006b        0x0 c:/avr-gcc-7.2.0-x86-mingw/bin/../lib/gcc/avr/7.2.0/../../../../avr/lib/avr5\libm.a(fp_round.o)
 .data          0x0080006b        0x0 c:/avr-gcc-7.2.0-x86-mingw/bin/../lib/gcc/avr/7.2.0/../../../../avr/lib/avr5\libm.a(fp_sinus.o)
 .data          0x0080006b        0x0 c:/avr-gcc-7.2.0-x86-mingw/bin/../lib/gcc/avr/7.2.0/../../../../avr/lib/avr5\libm.a(fp_split3.o)
 .data          0x0080006b        0x0 c:/avr-gcc-7.2.0-x86-mingw/bin/../lib/gcc/avr/7.2.0/../../../../avr/lib/avr5\libm.a(fp_zero.o)
 .data          0x0080006b        0x0 c:/avr-gcc-7.2.0-x86-mingw/bin/../lib/gcc/avr/7.2.0/../../../../avr/lib/avr5\libm.a(gesf2.o)
 .data          0x0080006b        0x0 c:/avr-gcc-7.2.0-x86-mingw/bin/../lib/gcc/avr/7.2.0/../../../../avr/lib/avr5\libm.a(mulsf3.o)
 .data          0x0080006b        0x0 c:/avr-gcc-7.2.0-x86-mingw/bin/../lib/gcc/avr/7.2.0/../../../../avr/lib/avr5\libm.a(mulsf3x.o)
 .data          0x0080006b        0x0 c:/avr-gcc-7.2.0-x86-mingw/bin/../lib/gcc/avr/7.2.0/../../../../avr/lib/avr5\libm.a(fp_mpack.o)
 .data          0x0080006b        0x0 c:/avr-gcc-7.2.0-x86-mingw/bin/../lib/gcc/avr/7.2.0/../../../../avr/lib/avr5\libm.a(fp_powsodd.o)
 .data          0x0080006b        0x0 c:/avr-gcc-7.2.0-x86-mingw/bin/../lib/gcc/avr/7.2.0/../../../../avr/lib/avr5\libm.a(fp_powser.o)
 *(.data*)
 *(.gnu.linkonce.d*)
 *(.rodata)
 .rodata        0x0080006b       0x10 keypad.o
 *(.rodata*)
 .rodata.str1.1
                0x0080007b       0xef lcd_test.o
 *(.gnu.linkonce.r*)
                0x0080016a                . = ALIGN (0x2)
                0x0080016a                _edata = .
                0x0080016a                PROVIDE (__data_end, .)

.bss            0x0080016a       0x71
                0x0080016a                PROVIDE (__bss_start, .)
 *(.bss)
 .bss           0x0080016a        0x0 c:/avr-gcc-7.2.0-x86-mingw/bin/../lib/gcc/avr/7.2.0/../../../../avr/lib/avr5/crtatmega32.o
 .bss           0x0080016a        0x0 keypad.o
 .bss           0x0080016a        0x0 lcd.o
 .bss           0x0080016a       0x26 lcd_test.o
                0x0080016a                ZCS_flag
                0x0080016c                pf
                0x00800170                v_timer
                0x00800172                bill
                0x00800176                unit
                0x0080017a                power
                0x0080017e                vflag
                0x00800180                current
                0x00800184                current_adc
                0x00800186                voltage
                0x00800188                voltage_adc
                0x0080018a                min
                0x0080018c                sec
                0x0080018e                var
 .bss           0x00800190       0x45 uart.o
 .bss           0x008001d5        0x0 c:/avr-gcc-7.2.0-x86-mingw/bin/../lib/gcc/avr/7.2.0/avr5\libgcc.a(_divmodhi4.o)
 .bss           0x008001d5        0x0 c:/avr-gcc-7.2.0-x86-mingw/bin/../lib/gcc/avr/7.2.0/avr5\libgcc.a(_exit.o)
 .bss           0x008001d5        0x0 c:/avr-gcc-7.2.0-x86-mingw/bin/../lib/gcc/avr/7.2.0/avr5\libgcc.a(_tablejump2.o)
 .bss           0x008001d5        0x0 c:/avr-gcc-7.2.0-x86-mingw/bin/../lib/gcc/avr/7.2.0/avr5\libgcc.a(_copy_data.o)
 .bss           0x008001d5        0x0 c:/avr-gcc-7.2.0-x86-mingw/bin/../lib/gcc/avr/7.2.0/avr5\libgcc.a(_clear_bss.o)
 .bss           0x008001d5        0x0 c:/avr-gcc-7.2.0-x86-mingw/bin/../lib/gcc/avr/7.2.0/avr5\libgcc.a(_udivmodhi4.o)
 .bss           0x008001d5        0x0 c:/avr-gcc-7.2.0-x86-mingw/bin/../lib/gcc/avr/7.2.0/../../../../avr/lib/avr5\libm.a(addsf3.o)
 .bss           0x008001d5        0x0 c:/avr-gcc-7.2.0-x86-mingw/bin/../lib/gcc/avr/7.2.0/../../../../avr/lib/avr5\libm.a(addsf3x.o)
 .bss           0x008001d5        0x0 c:/avr-gcc-7.2.0-x86-mingw/bin/../lib/gcc/avr/7.2.0/../../../../avr/lib/avr5\libm.a(cmpsf2.o)
 .bss           0x008001d5        0x0 c:/avr-gcc-7.2.0-x86-mingw/bin/../lib/gcc/avr/7.2.0/../../../../avr/lib/avr5\libm.a(cos.o)
 .bss           0x008001d5        0x0 c:/avr-gcc-7.2.0-x86-mingw/bin/../lib/gcc/avr/7.2.0/../../../../avr/lib/avr5\libm.a(divsf3.o)
 .bss           0x008001d5        0x0 c:/avr-gcc-7.2.0-x86-mingw/bin/../lib/gcc/avr/7.2.0/../../../../avr/lib/avr5\libm.a(divsf3x.o)
 .bss           0x008001d5        0x0 c:/avr-gcc-7.2.0-x86-mingw/bin/../lib/gcc/avr/7.2.0/../../../../avr/lib/avr5\libm.a(fixsfsi.o)
 .bss           0x008001d5        0x0 c:/avr-gcc-7.2.0-x86-mingw/bin/../lib/gcc/avr/7.2.0/../../../../avr/lib/avr5\libm.a(fixunssfsi.o)
 .bss           0x008001d5        0x0 c:/avr-gcc-7.2.0-x86-mingw/bin/../lib/gcc/avr/7.2.0/../../../../avr/lib/avr5\libm.a(floatsisf.o)
 .bss           0x008001d5        0x0 c:/avr-gcc-7.2.0-x86-mingw/bin/../lib/gcc/avr/7.2.0/../../../../avr/lib/avr5\libm.a(fp_cmp.o)
 .bss           0x008001d5        0x0 c:/avr-gcc-7.2.0-x86-mingw/bin/../lib/gcc/avr/7.2.0/../../../../avr/lib/avr5\libm.a(fp_inf.o)
 .bss           0x008001d5        0x0 c:/avr-gcc-7.2.0-x86-mingw/bin/../lib/gcc/avr/7.2.0/../../../../avr/lib/avr5\libm.a(fp_nan.o)
 .bss           0x008001d5        0x0 c:/avr-gcc-7.2.0-x86-mingw/bin/../lib/gcc/avr/7.2.0/../../../../avr/lib/avr5\libm.a(fp_pscA.o)
 .bss           0x008001d5        0x0 c:/avr-gcc-7.2.0-x86-mingw/bin/../lib/gcc/avr/7.2.0/../../../../avr/lib/avr5\libm.a(fp_pscB.o)
 .bss           0x008001d5        0x0 c:/avr-gcc-7.2.0-x86-mingw/bin/../lib/gcc/avr/7.2.0/../../../../avr/lib/avr5\libm.a(fp_rempio2.o)
 .bss           0x008001d5        0x0 c:/avr-gcc-7.2.0-x86-mingw/bin/../lib/gcc/avr/7.2.0/../../../../avr/lib/avr5\libm.a(fp_round.o)
 .bss           0x008001d5        0x0 c:/avr-gcc-7.2.0-x86-mingw/bin/../lib/gcc/avr/7.2.0/../../../../avr/lib/avr5\libm.a(fp_sinus.o)
 .bss           0x008001d5        0x0 c:/avr-gcc-7.2.0-x86-mingw/bin/../lib/gcc/avr/7.2.0/../../../../avr/lib/avr5\libm.a(fp_split3.o)
 .bss           0x008001d5        0x0 c:/avr-gcc-7.2.0-x86-mingw/bin/../lib/gcc/avr/7.2.0/../../../../avr/lib/avr5\libm.a(fp_zero.o)
 .bss           0x008001d5        0x0 c:/avr-gcc-7.2.0-x86-mingw/bin/../lib/gcc/avr/7.2.0/../../../../avr/lib/avr5\libm.a(gesf2.o)
 .bss           0x008001d5        0x0 c:/avr-gcc-7.2.0-x86-mingw/bin/../lib/gcc/avr/7.2.0/../../../../avr/lib/avr5\libm.a(mulsf3.o)
 .bss           0x008001d5        0x0 c:/avr-gcc-7.2.0-x86-mingw/bin/../lib/gcc/avr/7.2.0/../../../../avr/lib/avr5\libm.a(mulsf3x.o)
 .bss           0x008001d5        0x0 c:/avr-gcc-7.2.0-x86-mingw/bin/../lib/gcc/avr/7.2.0/../../../../avr/lib/avr5\libm.a(fp_mpack.o)
 .bss           0x008001d5        0x0 c:/avr-gcc-7.2.0-x86-mingw/bin/../lib/gcc/avr/7.2.0/../../../../avr/lib/avr5\libm.a(fp_powsodd.o)
 .bss           0x008001d5        0x0 c:/avr-gcc-7.2.0-x86-mingw/bin/../lib/gcc/avr/7.2.0/../../../../avr/lib/avr5\libm.a(fp_powser.o)
 *(.bss*)
 *(COMMON)
 COMMON         0x008001d5        0x6 lcd_test.o
                0x008001d5                i_timer
                0x008001d7                v_frequency
                0x008001db                PROVIDE (__bss_end, .)
                0x00001cf4                __data_load_start = LOADADDR (.data)
                0x00001dfe                __data_load_end = (__data_load_start + SIZEOF (.data))

.noinit         0x008001db        0x0
                [!provide]                PROVIDE (__noinit_start, .)
 *(.noinit*)
                [!provide]                PROVIDE (__noinit_end, .)
                0x008001db                _end = .
                [!provide]                PROVIDE (__heap_start, .)

.eeprom         0x00810000        0x0
 *(.eeprom*)
                0x00810000                __eeprom_end = .

.fuse
 *(.fuse)
 *(.lfuse)
 *(.hfuse)
 *(.efuse)

.lock
 *(.lock*)

.signature
 *(.signature*)

.stab
 *(.stab)

.stabstr
 *(.stabstr)

.stab.excl
 *(.stab.excl)

.stab.exclstr
 *(.stab.exclstr)

.stab.index
 *(.stab.index)

.stab.indexstr
 *(.stab.indexstr)

.comment        0x00000000       0x11
 *(.comment)
 .comment       0x00000000       0x11 keypad.o
                                 0x12 (size before relaxing)
 .comment       0x00000011       0x12 lcd.o
 .comment       0x00000011       0x12 lcd_test.o
 .comment       0x00000011       0x12 uart.o

.note.gnu.avr.deviceinfo
                0x00000000       0x3c
 .note.gnu.avr.deviceinfo
                0x00000000       0x3c c:/avr-gcc-7.2.0-x86-mingw/bin/../lib/gcc/avr/7.2.0/../../../../avr/lib/avr5/crtatmega32.o

.avr.prop       0x00000000       0x2c
 .avr.prop      0x00000000       0x16 keypad.o
 .avr.prop      0x00000016       0x16 lcd_test.o

.note.gnu.build-id
 *(.note.gnu.build-id)

.debug
 *(.debug)

.line
 *(.line)

.debug_srcinfo
 *(.debug_srcinfo)

.debug_sfnames
 *(.debug_sfnames)

.debug_aranges  0x00000000      0x148
 *(.debug_aranges)
 .debug_aranges
                0x00000000       0x20 keypad.o
 .debug_aranges
                0x00000020       0x20 lcd.o
 .debug_aranges
                0x00000040       0x28 lcd_test.o
 .debug_aranges
                0x00000068       0x20 uart.o
 .debug_aranges
                0x00000088       0x20 c:/avr-gcc-7.2.0-x86-mingw/bin/../lib/gcc/avr/7.2.0/avr5\libgcc.a(_divmodhi4.o)
 .debug_aranges
                0x000000a8       0x20 c:/avr-gcc-7.2.0-x86-mingw/bin/../lib/gcc/avr/7.2.0/avr5\libgcc.a(_exit.o)
 .debug_aranges
                0x000000c8       0x20 c:/avr-gcc-7.2.0-x86-mingw/bin/../lib/gcc/avr/7.2.0/avr5\libgcc.a(_tablejump2.o)
 .debug_aranges
                0x000000e8       0x20 c:/avr-gcc-7.2.0-x86-mingw/bin/../lib/gcc/avr/7.2.0/avr5\libgcc.a(_copy_data.o)
 .debug_aranges
                0x00000108       0x20 c:/avr-gcc-7.2.0-x86-mingw/bin/../lib/gcc/avr/7.2.0/avr5\libgcc.a(_clear_bss.o)
 .debug_aranges
                0x00000128       0x20 c:/avr-gcc-7.2.0-x86-mingw/bin/../lib/gcc/avr/7.2.0/avr5\libgcc.a(_udivmodhi4.o)

.debug_pubnames
 *(.debug_pubnames)

.debug_info     0x00000000     0x2bdc
 *(.debug_info .gnu.linkonce.wi.*)
 .debug_info    0x00000000      0x4e6 c:/avr-gcc-7.2.0-x86-mingw/bin/../lib/gcc/avr/7.2.0/../../../../avr/lib/avr5/crtatmega32.o
 .debug_info    0x000004e6      0x419 keypad.o
 .debug_info    0x000008ff      0x7d7 lcd.o
 .debug_info    0x000010d6     0x1728 lcd_test.o
 .debug_info    0x000027fe      0x2fa uart.o
 .debug_info    0x00002af8       0x26 c:/avr-gcc-7.2.0-x86-mingw/bin/../lib/gcc/avr/7.2.0/avr5\libgcc.a(_divmodhi4.o)
 .debug_info    0x00002b1e       0x26 c:/avr-gcc-7.2.0-x86-mingw/bin/../lib/gcc/avr/7.2.0/avr5\libgcc.a(_exit.o)
 .debug_info    0x00002b44       0x26 c:/avr-gcc-7.2.0-x86-mingw/bin/../lib/gcc/avr/7.2.0/avr5\libgcc.a(_tablejump2.o)
 .debug_info    0x00002b6a       0x26 c:/avr-gcc-7.2.0-x86-mingw/bin/../lib/gcc/avr/7.2.0/avr5\libgcc.a(_copy_data.o)
 .debug_info    0x00002b90       0x26 c:/avr-gcc-7.2.0-x86-mingw/bin/../lib/gcc/avr/7.2.0/avr5\libgcc.a(_clear_bss.o)
 .debug_info    0x00002bb6       0x26 c:/avr-gcc-7.2.0-x86-mingw/bin/../lib/gcc/avr/7.2.0/avr5\libgcc.a(_udivmodhi4.o)

.debug_abbrev   0x00000000      0xccf
 *(.debug_abbrev)
 .debug_abbrev  0x00000000      0x4a3 c:/avr-gcc-7.2.0-x86-mingw/bin/../lib/gcc/avr/7.2.0/../../../../avr/lib/avr5/crtatmega32.o
 .debug_abbrev  0x000004a3      0x1f6 keypad.o
 .debug_abbrev  0x00000699      0x2bc lcd.o
 .debug_abbrev  0x00000955      0x1ca lcd_test.o
 .debug_abbrev  0x00000b1f      0x138 uart.o
 .debug_abbrev  0x00000c57       0x14 c:/avr-gcc-7.2.0-x86-mingw/bin/../lib/gcc/avr/7.2.0/avr5\libgcc.a(_divmodhi4.o)
 .debug_abbrev  0x00000c6b       0x14 c:/avr-gcc-7.2.0-x86-mingw/bin/../lib/gcc/avr/7.2.0/avr5\libgcc.a(_exit.o)
 .debug_abbrev  0x00000c7f       0x14 c:/avr-gcc-7.2.0-x86-mingw/bin/../lib/gcc/avr/7.2.0/avr5\libgcc.a(_tablejump2.o)
 .debug_abbrev  0x00000c93       0x14 c:/avr-gcc-7.2.0-x86-mingw/bin/../lib/gcc/avr/7.2.0/avr5\libgcc.a(_copy_data.o)
 .debug_abbrev  0x00000ca7       0x14 c:/avr-gcc-7.2.0-x86-mingw/bin/../lib/gcc/avr/7.2.0/avr5\libgcc.a(_clear_bss.o)
 .debug_abbrev  0x00000cbb       0x14 c:/avr-gcc-7.2.0-x86-mingw/bin/../lib/gcc/avr/7.2.0/avr5\libgcc.a(_udivmodhi4.o)

.debug_line     0x00000000     0x1414
 *(.debug_line .debug_line.* .debug_line_end)
 .debug_line    0x00000000       0x1d c:/avr-gcc-7.2.0-x86-mingw/bin/../lib/gcc/avr/7.2.0/../../../../avr/lib/avr5/crtatmega32.o
 .debug_line    0x0000001d      0x3d0 keypad.o
 .debug_line    0x000003ed      0x4d7 lcd.o
 .debug_line    0x000008c4      0x60a lcd_test.o
 .debug_line    0x00000ece      0x1bc uart.o
 .debug_line    0x0000108a       0xc7 c:/avr-gcc-7.2.0-x86-mingw/bin/../lib/gcc/avr/7.2.0/avr5\libgcc.a(_divmodhi4.o)
 .debug_line    0x00001151       0x61 c:/avr-gcc-7.2.0-x86-mingw/bin/../lib/gcc/avr/7.2.0/avr5\libgcc.a(_exit.o)
 .debug_line    0x000011b2       0x79 c:/avr-gcc-7.2.0-x86-mingw/bin/../lib/gcc/avr/7.2.0/avr5\libgcc.a(_tablejump2.o)
 .debug_line    0x0000122b       0x97 c:/avr-gcc-7.2.0-x86-mingw/bin/../lib/gcc/avr/7.2.0/avr5\libgcc.a(_copy_data.o)
 .debug_line    0x000012c2       0x85 c:/avr-gcc-7.2.0-x86-mingw/bin/../lib/gcc/avr/7.2.0/avr5\libgcc.a(_clear_bss.o)
 .debug_line    0x00001347       0xcd c:/avr-gcc-7.2.0-x86-mingw/bin/../lib/gcc/avr/7.2.0/avr5\libgcc.a(_udivmodhi4.o)

.debug_frame    0x00000000      0x3e4
 *(.debug_frame)
 .debug_frame   0x00000000       0x7c keypad.o
 .debug_frame   0x0000007c      0x164 lcd.o
 .debug_frame   0x000001e0      0x124 lcd_test.o
 .debug_frame   0x00000304       0xe0 uart.o

.debug_str      0x00000000      0x6a4
 *(.debug_str)
 .debug_str     0x00000000      0x196 c:/avr-gcc-7.2.0-x86-mingw/bin/../lib/gcc/avr/7.2.0/../../../../avr/lib/avr5/crtatmega32.o
 .debug_str     0x00000196      0x1e7 keypad.o
                                0x228 (size before relaxing)
 .debug_str     0x0000037d       0xf6 lcd.o
                                0x272 (size before relaxing)
 .debug_str     0x00000473      0x135 lcd_test.o
                                0x2db (size before relaxing)
 .debug_str     0x000005a8       0x9e uart.o
                                0x21f (size before relaxing)
 .debug_str     0x00000646       0x5e c:/avr-gcc-7.2.0-x86-mingw/bin/../lib/gcc/avr/7.2.0/avr5\libgcc.a(_divmodhi4.o)
 .debug_str     0x000006a4       0x5e c:/avr-gcc-7.2.0-x86-mingw/bin/../lib/gcc/avr/7.2.0/avr5\libgcc.a(_exit.o)
 .debug_str     0x000006a4       0x5e c:/avr-gcc-7.2.0-x86-mingw/bin/../lib/gcc/avr/7.2.0/avr5\libgcc.a(_tablejump2.o)
 .debug_str     0x000006a4       0x5e c:/avr-gcc-7.2.0-x86-mingw/bin/../lib/gcc/avr/7.2.0/avr5\libgcc.a(_copy_data.o)
 .debug_str     0x000006a4       0x5e c:/avr-gcc-7.2.0-x86-mingw/bin/../lib/gcc/avr/7.2.0/avr5\libgcc.a(_clear_bss.o)
 .debug_str     0x000006a4       0x5e c:/avr-gcc-7.2.0-x86-mingw/bin/../lib/gcc/avr/7.2.0/avr5\libgcc.a(_udivmodhi4.o)

.debug_loc      0x00000000     0x1348
 *(.debug_loc)
 .debug_loc     0x00000000      0x4ab keypad.o
 .debug_loc     0x000004ab      0x8ad lcd.o
 .debug_loc     0x00000d58      0x2c5 lcd_test.o
 .debug_loc     0x0000101d      0x32b uart.o

.debug_macinfo
 *(.debug_macinfo)

.debug_weaknames
 *(.debug_weaknames)

.debug_funcnames
 *(.debug_funcnames)

.debug_typenames
 *(.debug_typenames)

.debug_varnames
 *(.debug_varnames)

.debug_pubtypes
 *(.debug_pubtypes)

.debug_ranges   0x00000000       0x30
 *(.debug_ranges)
 .debug_ranges  0x00000000       0x18 lcd.o
 .debug_ranges  0x00000018       0x18 lcd_test.o

.debug_macro
 *(.debug_macro)

.debug_addr
 *(.debug_addr)
OUTPUT(lcd.elf elf32-avr)
LOAD linker stubs
